; Function Attrs: mustprogress uwtable
define void @_ZN7rocksdb14StatisticsImpl14setTickerCountEjm(ptr noundef nonnull align 8 dereferenceable(112) %this, i32 noundef %tickerType, i64 noundef %count) unnamed_addr #0 align 2 personality ptr @__gxx_personality_v0 {
entry:
  %aggregate_lock_ = getelementptr inbounds i8, ptr %this, i64 56
  tail call void @_ZN7rocksdb4port5Mutex4LockEv(ptr noundef nonnull align 8 dereferenceable(40) %aggregate_lock_)
  %per_core_stats_.i = getelementptr inbounds i8, ptr %this, i64 96
  %size_shift_.i.i = getelementptr inbounds i8, ptr %this, i64 104
  %idxprom9.i = zext i32 %tickerType to i64
  br label %for.body.i

for.body.i:                                       ; preds = %for.body.i, %entry
  %core_idx.07.i = phi i64 [ 0, %entry ], [ %inc.i, %for.body.i ]
  %cmp2.i = icmp eq i64 %core_idx.07.i, 0
  %0 = load ptr, ptr %per_core_stats_.i, align 8
  %arrayidx.i.i.i = getelementptr inbounds %"struct.rocksdb::StatisticsImpl::StatisticsData", ptr %0, i64 %core_idx.07.i
  %count.sink.i = select i1 %cmp2.i, i64 %count, i64 0
  %arrayidx.i = getelementptr inbounds [216 x %"struct.std::atomic.51"], ptr %arrayidx.i.i.i, i64 0, i64 %idxprom9.i
  store atomic i64 %count.sink.i, ptr %arrayidx.i seq_cst, align 8
  %inc.i = add nuw i64 %core_idx.07.i, 1
  %1 = load i32, ptr %size_shift_.i.i, align 8
  %sh_prom.i.i = zext nneg i32 %1 to i64
  %core_idx.0.highbits.i = lshr i64 %inc.i, %sh_prom.i.i
  %cmp.i = icmp eq i64 %core_idx.0.highbits.i, 0
  br i1 %cmp.i, label %for.body.i, label %invoke.cont, !llvm.loop !32

invoke.cont:                                      ; preds = %for.body.i
  invoke void @_ZN7rocksdb4port5Mutex6UnlockEv(ptr noundef nonnull align 8 dereferenceable(40) %aggregate_lock_)
          to label %_ZN7rocksdb9MutexLockD2Ev.exit unwind label %terminate.lpad.i

terminate.lpad.i:                                 ; preds = %invoke.cont
  %2 = landingpad { ptr, i32 }
          catch ptr null
  %3 = extractvalue { ptr, i32 } %2, 0
  tail call void @__clang_call_terminate(ptr %3) #28
  unreachable

_ZN7rocksdb9MutexLockD2Ev.exit:                   ; preds = %invoke.cont
  %stats_ = getelementptr inbounds i8, ptr %this, i64 40
  %4 = load ptr, ptr %stats_, align 8
  %cmp.i4 = icmp ne ptr %4, null
  %cmp = icmp ult i32 %tickerType, 215
  %or.cond = and i1 %cmp, %cmp.i4
  br i1 %or.cond, label %if.then, label %if.end

if.then:                                          ; preds = %_ZN7rocksdb9MutexLockD2Ev.exit
  %vtable = load ptr, ptr %4, align 8
  %vfn = getelementptr inbounds i8, ptr %vtable, i64 184
  %5 = load ptr, ptr %vfn, align 8
  tail call void %5(ptr noundef nonnull align 8 dereferenceable(33) %4, i32 noundef %tickerType, i64 noundef %count)
  br label %if.end

if.end:                                           ; preds = %if.then, %_ZN7rocksdb9MutexLockD2Ev.exit
  ret void
}